---
triple:          'arm64-apple-darwin'
binary-path:     '/Users/nigelsaurino/Github/quantnet-cpp/level_8/ex2/main'
relocations:
  - { offsetInCU: 0x2D85, offset: 0x2D85, size: 0x8, addend: 0x0, symName: __ZNSt3__124__put_character_sequenceB7v160006IcNS_11char_traitsIcEEEERNS_13basic_ostreamIT_T0_EES7_PKS4_m, symObjAddr: 0x790, symBinAddr: 0x10000297C, symSize: 0x1F4 }
  - { offsetInCU: 0x46BC, offset: 0x46BC, size: 0x8, addend: 0x0, symName: __ZNSt3__1lsB7v160006IcNS_11char_traitsIcEENS_9allocatorIcEEEERNS_13basic_ostreamIT_T0_EES9_RKNS_12basic_stringIS6_S7_T1_EE, symObjAddr: 0xC4, symBinAddr: 0x1000022B0, symSize: 0x4C }
  - { offsetInCU: 0x4714, offset: 0x4714, size: 0x8, addend: 0x0, symName: __ZNSt3__1lsB7v160006INS_11char_traitsIcEEEERNS_13basic_ostreamIcT_EES6_PKc, symObjAddr: 0x110, symBinAddr: 0x1000022FC, symSize: 0x48 }
  - { offsetInCU: 0x475A, offset: 0x475A, size: 0x8, addend: 0x0, symName: __ZNSt3__14endlB7v160006IcNS_11char_traitsIcEEEERNS_13basic_ostreamIT_T0_EES7_, symObjAddr: 0x1F0, symBinAddr: 0x1000023DC, symSize: 0x58 }
  - { offsetInCU: 0x479A, offset: 0x479A, size: 0x8, addend: 0x0, symName: __ZNSt3__116__pad_and_outputB7v160006IcNS_11char_traitsIcEEEENS_19ostreambuf_iteratorIT_T0_EES6_PKS4_S8_S8_RNS_8ios_baseES4_, symObjAddr: 0x9E8, symBinAddr: 0x100002BD4, symSize: 0x248 }
  - { offsetInCU: 0x4869, offset: 0x4869, size: 0x8, addend: 0x0, symName: __ZNSt3__119__debug_db_insert_cB7v160006INS_12basic_stringIcNS_11char_traitsIcEENS_9allocatorIcEEEEEEvPT_, symObjAddr: 0xEA4, symBinAddr: 0x100003090, symSize: 0x10 }
  - { offsetInCU: 0x489A, offset: 0x489A, size: 0x8, addend: 0x0, symName: __ZNSt3__112__to_addressB7v160006IKcEEPT_S3_, symObjAddr: 0xF70, symBinAddr: 0x10000315C, symSize: 0x14 }
  - { offsetInCU: 0x48CF, offset: 0x48CF, size: 0x8, addend: 0x0, symName: __ZNSt3__130__libcpp_is_constant_evaluatedB7v160006Ev, symObjAddr: 0x109C, symBinAddr: 0x100003288, symSize: 0xC }
  - { offsetInCU: 0x491F, offset: 0x491F, size: 0x8, addend: 0x0, symName: __ZNSt3__19use_facetB7v160006INS_5ctypeIcEEEERKT_RKNS_6localeE, symObjAddr: 0x1254, symBinAddr: 0x100003440, symSize: 0x2C }
  - { offsetInCU: 0x4DEE, offset: 0x4DEE, size: 0x8, addend: 0x0, symName: __ZNSt3__118__constexpr_strlenB7v160006EPKc, symObjAddr: 0x12EC, symBinAddr: 0x1000034D8, symSize: 0x24 }
  - { offsetInCU: 0x79D2, offset: 0x79D2, size: 0x8, addend: 0x0, symName: __ZN5boost6tuples6detail5cnullEv, symObjAddr: 0x1598, symBinAddr: 0x100003784, symSize: 0x4 }
  - { offsetInCU: 0x7D3D, offset: 0x7D3D, size: 0x8, addend: 0x0, symName: __ZN5boost6tuples3getILm0ENSt3__112basic_stringIcNS2_11char_traitsIcEENS2_9allocatorIcEEEENS0_4consIiNS9_IdNS0_9null_typeEEEEEEENS0_13access_traitsINS0_7elementIXT_ENS9_IT0_T1_EEE4typeEE14non_const_typeERSH_, symObjAddr: 0x1310, symBinAddr: 0x1000034FC, symSize: 0x24 }
  - { offsetInCU: 0x7D85, offset: 0x7D85, size: 0x8, addend: 0x0, symName: __ZN5boost6tuples3getILm1ENSt3__112basic_stringIcNS2_11char_traitsIcEENS2_9allocatorIcEEEENS0_4consIiNS9_IdNS0_9null_typeEEEEEEENS0_13access_traitsINS0_7elementIXT_ENS9_IT0_T1_EEE4typeEE14non_const_typeERSH_, symObjAddr: 0x13F8, symBinAddr: 0x1000035E4, symSize: 0x24 }
  - { offsetInCU: 0x7DCD, offset: 0x7DCD, size: 0x8, addend: 0x0, symName: __ZN5boost6tuples3getILm2ENSt3__112basic_stringIcNS2_11char_traitsIcEENS2_9allocatorIcEEEENS0_4consIiNS9_IdNS0_9null_typeEEEEEEENS0_13access_traitsINS0_7elementIXT_ENS9_IT0_T1_EEE4typeEE14non_const_typeERSH_, symObjAddr: 0x1444, symBinAddr: 0x100003630, symSize: 0x24 }
  - { offsetInCU: 0x7EAE, offset: 0x7EAE, size: 0x8, addend: 0x0, symName: __Z11PrintPersonN5boost6tuples5tupleINSt3__112basic_stringIcNS2_11char_traitsIcEENS2_9allocatorIcEEEEidNS0_9null_typeES9_S9_S9_S9_S9_S9_EE, symObjAddr: 0x0, symBinAddr: 0x1000021EC, symSize: 0xC4 }
  - { offsetInCU: 0x7F81, offset: 0x7F81, size: 0x8, addend: 0x0, symName: __ZN5boost6tuples4consINSt3__112basic_stringIcNS2_11char_traitsIcEENS2_9allocatorIcEEEENS1_IiNS1_IdNS0_9null_typeEEEEEE3getILm0EEENS0_13access_traitsINS0_7elementIXT_ESC_E4typeEE14non_const_typeEv, symObjAddr: 0x158, symBinAddr: 0x100002344, symSize: 0x24 }
  - { offsetInCU: 0x7FAF, offset: 0x7FAF, size: 0x8, addend: 0x0, symName: __ZN5boost6tuples4consINSt3__112basic_stringIcNS2_11char_traitsIcEENS2_9allocatorIcEEEENS1_IiNS1_IdNS0_9null_typeEEEEEE3getILm1EEENS0_13access_traitsINS0_7elementIXT_ESC_E4typeEE14non_const_typeEv, symObjAddr: 0x17C, symBinAddr: 0x100002368, symSize: 0x24 }
  - { offsetInCU: 0x7FDD, offset: 0x7FDD, size: 0x8, addend: 0x0, symName: __ZN5boost6tuples4consINSt3__112basic_stringIcNS2_11char_traitsIcEENS2_9allocatorIcEEEENS1_IiNS1_IdNS0_9null_typeEEEEEE3getILm2EEENS0_13access_traitsINS0_7elementIXT_ESC_E4typeEE14non_const_typeEv, symObjAddr: 0x1A0, symBinAddr: 0x10000238C, symSize: 0x24 }
  - { offsetInCU: 0x800B, offset: 0x800B, size: 0x8, addend: 0x0, symName: __ZNSt3__113basic_ostreamIcNS_11char_traitsIcEEElsB7v160006EPFRS3_S4_E, symObjAddr: 0x1C4, symBinAddr: 0x1000023B0, symSize: 0x2C }
  - { offsetInCU: 0x803D, offset: 0x803D, size: 0x8, addend: 0x0, symName: _main, symObjAddr: 0x248, symBinAddr: 0x100002434, symSize: 0x28C }
  - { offsetInCU: 0x8088, offset: 0x8088, size: 0x8, addend: 0x0, symName: __ZNSt3__112basic_stringIcNS_11char_traitsIcEENS_9allocatorIcEEEC1B7v160006IDnEEPKc, symObjAddr: 0x4D4, symBinAddr: 0x1000026C0, symSize: 0x34 }
  - { offsetInCU: 0x80D3, offset: 0x80D3, size: 0x8, addend: 0x0, symName: __ZN5boost6tuples5tupleINSt3__112basic_stringIcNS2_11char_traitsIcEENS2_9allocatorIcEEEEidNS0_9null_typeES9_S9_S9_S9_S9_S9_EC1ERKS8_RKiRKd, symObjAddr: 0x508, symBinAddr: 0x1000026F4, symSize: 0x44 }
  - { offsetInCU: 0x8132, offset: 0x8132, size: 0x8, addend: 0x0, symName: __ZN5boost6tuples5tupleINSt3__112basic_stringIcNS2_11char_traitsIcEENS2_9allocatorIcEEEEidNS0_9null_typeES9_S9_S9_S9_S9_S9_EC1ERKSA_, symObjAddr: 0x558, symBinAddr: 0x100002744, symSize: 0x34 }
  - { offsetInCU: 0x8165, offset: 0x8165, size: 0x8, addend: 0x0, symName: __ZN5boost6tuples5tupleINSt3__112basic_stringIcNS2_11char_traitsIcEENS2_9allocatorIcEEEEidNS0_9null_typeES9_S9_S9_S9_S9_S9_ED1Ev, symObjAddr: 0x58C, symBinAddr: 0x100002778, symSize: 0x2C }
  - { offsetInCU: 0x8190, offset: 0x8190, size: 0x8, addend: 0x0, symName: __ZN5boost6tuples5tupleINSt3__112basic_stringIcNS2_11char_traitsIcEENS2_9allocatorIcEEEEidNS0_9null_typeES9_S9_S9_S9_S9_S9_EC2ERKSA_, symObjAddr: 0x5B8, symBinAddr: 0x1000027A4, symSize: 0x34 }
  - { offsetInCU: 0x81C3, offset: 0x81C3, size: 0x8, addend: 0x0, symName: __ZN5boost6tuples4consINSt3__112basic_stringIcNS2_11char_traitsIcEENS2_9allocatorIcEEEENS1_IiNS1_IdNS0_9null_typeEEEEEEC2ERKSC_, symObjAddr: 0x5EC, symBinAddr: 0x1000027D8, symSize: 0x78 }
  - { offsetInCU: 0x81FA, offset: 0x81FA, size: 0x8, addend: 0x0, symName: __ZN5boost6tuples4consIiNS1_IdNS0_9null_typeEEEEC1ERKS4_, symObjAddr: 0x664, symBinAddr: 0x100002850, symSize: 0x34 }
  - { offsetInCU: 0x8231, offset: 0x8231, size: 0x8, addend: 0x0, symName: __ZN5boost6tuples4consIiNS1_IdNS0_9null_typeEEEEC2ERKS4_, symObjAddr: 0x698, symBinAddr: 0x100002884, symSize: 0x48 }
  - { offsetInCU: 0x8268, offset: 0x8268, size: 0x8, addend: 0x0, symName: __ZN5boost6tuples4consIdNS0_9null_typeEEC1ERKS3_, symObjAddr: 0x6E0, symBinAddr: 0x1000028CC, symSize: 0x34 }
  - { offsetInCU: 0x829F, offset: 0x829F, size: 0x8, addend: 0x0, symName: __ZN5boost6tuples4consIdNS0_9null_typeEEC2ERKS3_, symObjAddr: 0x714, symBinAddr: 0x100002900, symSize: 0x24 }
  - { offsetInCU: 0x82D6, offset: 0x82D6, size: 0x8, addend: 0x0, symName: __ZN5boost6tuples5tupleINSt3__112basic_stringIcNS2_11char_traitsIcEENS2_9allocatorIcEEEEidNS0_9null_typeES9_S9_S9_S9_S9_S9_ED2Ev, symObjAddr: 0x738, symBinAddr: 0x100002924, symSize: 0x2C }
  - { offsetInCU: 0x8301, offset: 0x8301, size: 0x8, addend: 0x0, symName: __ZN5boost6tuples4consINSt3__112basic_stringIcNS2_11char_traitsIcEENS2_9allocatorIcEEEENS1_IiNS1_IdNS0_9null_typeEEEEEED2Ev, symObjAddr: 0x764, symBinAddr: 0x100002950, symSize: 0x2C }
  - { offsetInCU: 0x832C, offset: 0x832C, size: 0x8, addend: 0x0, symName: __ZNSt3__111char_traitsIcE6lengthEPKc, symObjAddr: 0x984, symBinAddr: 0x100002B70, symSize: 0x48 }
  - { offsetInCU: 0x836C, offset: 0x836C, size: 0x8, addend: 0x0, symName: __ZNKSt3__113basic_ostreamIcNS_11char_traitsIcEEE6sentrycvbB7v160006Ev, symObjAddr: 0x9CC, symBinAddr: 0x100002BB8, symSize: 0x1C }
  - { offsetInCU: 0x8390, offset: 0x8390, size: 0x8, addend: 0x0, symName: __ZNSt3__119ostreambuf_iteratorIcNS_11char_traitsIcEEEC1B7v160006ERNS_13basic_ostreamIcS2_EE, symObjAddr: 0xC30, symBinAddr: 0x100002E1C, symSize: 0x34 }
  - { offsetInCU: 0x83C7, offset: 0x83C7, size: 0x8, addend: 0x0, symName: __ZNKSt3__18ios_base5flagsB7v160006Ev, symObjAddr: 0xC64, symBinAddr: 0x100002E50, symSize: 0x18 }
  - { offsetInCU: 0x83ED, offset: 0x83ED, size: 0x8, addend: 0x0, symName: __ZNKSt3__19basic_iosIcNS_11char_traitsIcEEE4fillB7v160006Ev, symObjAddr: 0xC7C, symBinAddr: 0x100002E68, symSize: 0x64 }
  - { offsetInCU: 0x8413, offset: 0x8413, size: 0x8, addend: 0x0, symName: __ZNKSt3__119ostreambuf_iteratorIcNS_11char_traitsIcEEE6failedB7v160006Ev, symObjAddr: 0xCE0, symBinAddr: 0x100002ECC, symSize: 0x24 }
  - { offsetInCU: 0x8437, offset: 0x8437, size: 0x8, addend: 0x0, symName: __ZNSt3__19basic_iosIcNS_11char_traitsIcEEE8setstateB7v160006Ej, symObjAddr: 0xD04, symBinAddr: 0x100002EF0, symSize: 0x2C }
  - { offsetInCU: 0x846B, offset: 0x846B, size: 0x8, addend: 0x0, symName: __ZNKSt3__18ios_base5widthB7v160006Ev, symObjAddr: 0xD30, symBinAddr: 0x100002F1C, symSize: 0x18 }
  - { offsetInCU: 0x8490, offset: 0x8490, size: 0x8, addend: 0x0, symName: __ZNSt3__115basic_streambufIcNS_11char_traitsIcEEE5sputnB7v160006EPKcl, symObjAddr: 0xD48, symBinAddr: 0x100002F34, symSize: 0x3C }
  - { offsetInCU: 0x84D0, offset: 0x84D0, size: 0x8, addend: 0x0, symName: __ZNSt3__112basic_stringIcNS_11char_traitsIcEENS_9allocatorIcEEEC1B7v160006Emc, symObjAddr: 0xD84, symBinAddr: 0x100002F70, symSize: 0x3C }
  - { offsetInCU: 0x8516, offset: 0x8516, size: 0x8, addend: 0x0, symName: __ZNKSt3__112basic_stringIcNS_11char_traitsIcEENS_9allocatorIcEEE4dataB7v160006Ev, symObjAddr: 0xDC0, symBinAddr: 0x100002FAC, symSize: 0x28 }
  - { offsetInCU: 0x853B, offset: 0x853B, size: 0x8, addend: 0x0, symName: __ZNSt3__18ios_base5widthB7v160006El, symObjAddr: 0xDE8, symBinAddr: 0x100002FD4, symSize: 0x2C }
  - { offsetInCU: 0x857E, offset: 0x857E, size: 0x8, addend: 0x0, symName: __ZNSt3__112basic_stringIcNS_11char_traitsIcEENS_9allocatorIcEEEC2B7v160006Emc, symObjAddr: 0xE14, symBinAddr: 0x100003000, symSize: 0x54 }
  - { offsetInCU: 0x85C9, offset: 0x85C9, size: 0x8, addend: 0x0, symName: __ZNSt3__117__compressed_pairINS_12basic_stringIcNS_11char_traitsIcEENS_9allocatorIcEEE5__repES5_EC1B7v160006INS_18__default_init_tagESA_EEOT_OT0_, symObjAddr: 0xE68, symBinAddr: 0x100003054, symSize: 0x3C }
  - { offsetInCU: 0x861F, offset: 0x861F, size: 0x8, addend: 0x0, symName: __ZNSt3__117__compressed_pairINS_12basic_stringIcNS_11char_traitsIcEENS_9allocatorIcEEE5__repES5_EC2B7v160006INS_18__default_init_tagESA_EEOT_OT0_, symObjAddr: 0xEB4, symBinAddr: 0x1000030A0, symSize: 0x3C }
  - { offsetInCU: 0x8675, offset: 0x8675, size: 0x8, addend: 0x0, symName: __ZNSt3__122__compressed_pair_elemINS_12basic_stringIcNS_11char_traitsIcEENS_9allocatorIcEEE5__repELi0ELb0EEC2B7v160006ENS_18__default_init_tagE, symObjAddr: 0xEF0, symBinAddr: 0x1000030DC, symSize: 0x14 }
  - { offsetInCU: 0x86A8, offset: 0x86A8, size: 0x8, addend: 0x0, symName: __ZNSt3__122__compressed_pair_elemINS_9allocatorIcEELi1ELb1EEC2B7v160006ENS_18__default_init_tagE, symObjAddr: 0xF04, symBinAddr: 0x1000030F0, symSize: 0x2C }
  - { offsetInCU: 0x86DB, offset: 0x86DB, size: 0x8, addend: 0x0, symName: __ZNSt3__19allocatorIcEC2B7v160006Ev, symObjAddr: 0xF30, symBinAddr: 0x10000311C, symSize: 0x2C }
  - { offsetInCU: 0x8703, offset: 0x8703, size: 0x8, addend: 0x0, symName: __ZNSt3__116__non_trivial_ifILb1ENS_9allocatorIcEEEC2B7v160006Ev, symObjAddr: 0xF5C, symBinAddr: 0x100003148, symSize: 0x14 }
  - { offsetInCU: 0x872B, offset: 0x872B, size: 0x8, addend: 0x0, symName: __ZNKSt3__112basic_stringIcNS_11char_traitsIcEENS_9allocatorIcEEE13__get_pointerB7v160006Ev, symObjAddr: 0xF84, symBinAddr: 0x100003170, symSize: 0x54 }
  - { offsetInCU: 0x874F, offset: 0x874F, size: 0x8, addend: 0x0, symName: __ZNKSt3__112basic_stringIcNS_11char_traitsIcEENS_9allocatorIcEEE9__is_longB7v160006Ev, symObjAddr: 0xFD8, symBinAddr: 0x1000031C4, symSize: 0x74 }
  - { offsetInCU: 0x8773, offset: 0x8773, size: 0x8, addend: 0x0, symName: __ZNKSt3__112basic_stringIcNS_11char_traitsIcEENS_9allocatorIcEEE18__get_long_pointerB7v160006Ev, symObjAddr: 0x104C, symBinAddr: 0x100003238, symSize: 0x28 }
  - { offsetInCU: 0x8797, offset: 0x8797, size: 0x8, addend: 0x0, symName: __ZNKSt3__112basic_stringIcNS_11char_traitsIcEENS_9allocatorIcEEE19__get_short_pointerB7v160006Ev, symObjAddr: 0x1074, symBinAddr: 0x100003260, symSize: 0x28 }
  - { offsetInCU: 0x87BB, offset: 0x87BB, size: 0x8, addend: 0x0, symName: __ZNKSt3__117__compressed_pairINS_12basic_stringIcNS_11char_traitsIcEENS_9allocatorIcEEE5__repES5_E5firstB7v160006Ev, symObjAddr: 0x10A8, symBinAddr: 0x100003294, symSize: 0x24 }
  - { offsetInCU: 0x87DF, offset: 0x87DF, size: 0x8, addend: 0x0, symName: __ZNKSt3__122__compressed_pair_elemINS_12basic_stringIcNS_11char_traitsIcEENS_9allocatorIcEEE5__repELi0ELb0EE5__getB7v160006Ev, symObjAddr: 0x10CC, symBinAddr: 0x1000032B8, symSize: 0x14 }
  - { offsetInCU: 0x8804, offset: 0x8804, size: 0x8, addend: 0x0, symName: __ZNSt3__114pointer_traitsIPKcE10pointer_toB7v160006ERS1_, symObjAddr: 0x10E0, symBinAddr: 0x1000032CC, symSize: 0x14 }
  - { offsetInCU: 0x8826, offset: 0x8826, size: 0x8, addend: 0x0, symName: __ZNSt3__119ostreambuf_iteratorIcNS_11char_traitsIcEEEC2B7v160006ERNS_13basic_ostreamIcS2_EE, symObjAddr: 0x10F4, symBinAddr: 0x1000032E0, symSize: 0x68 }
  - { offsetInCU: 0x885D, offset: 0x885D, size: 0x8, addend: 0x0, symName: __ZNKSt3__19basic_iosIcNS_11char_traitsIcEEE5rdbufB7v160006Ev, symObjAddr: 0x115C, symBinAddr: 0x100003348, symSize: 0x24 }
  - { offsetInCU: 0x8883, offset: 0x8883, size: 0x8, addend: 0x0, symName: __ZNKSt3__18ios_base5rdbufB7v160006Ev, symObjAddr: 0x1180, symBinAddr: 0x10000336C, symSize: 0x18 }
  - { offsetInCU: 0x88A8, offset: 0x88A8, size: 0x8, addend: 0x0, symName: __ZNSt3__111char_traitsIcE11eq_int_typeEii, symObjAddr: 0x1198, symBinAddr: 0x100003384, symSize: 0x28 }
  - { offsetInCU: 0x88D9, offset: 0x88D9, size: 0x8, addend: 0x0, symName: __ZNSt3__111char_traitsIcE3eofEv, symObjAddr: 0x11C0, symBinAddr: 0x1000033AC, symSize: 0x8 }
  - { offsetInCU: 0x88ED, offset: 0x88ED, size: 0x8, addend: 0x0, symName: __ZNKSt3__19basic_iosIcNS_11char_traitsIcEEE5widenB7v160006Ec, symObjAddr: 0x11C8, symBinAddr: 0x1000033B4, symSize: 0x8C }
  - { offsetInCU: 0x8959, offset: 0x8959, size: 0x8, addend: 0x0, symName: __ZNKSt3__15ctypeIcE5widenB7v160006Ec, symObjAddr: 0x1280, symBinAddr: 0x10000346C, symSize: 0x38 }
  - { offsetInCU: 0x898D, offset: 0x898D, size: 0x8, addend: 0x0, symName: __ZNSt3__18ios_base8setstateB7v160006Ej, symObjAddr: 0x12B8, symBinAddr: 0x1000034A4, symSize: 0x34 }
  - { offsetInCU: 0x89CD, offset: 0x89CD, size: 0x8, addend: 0x0, symName: __ZN5boost6tuples6detail10drop_frontILm0EE5applyINS0_4consINSt3__112basic_stringIcNS6_11char_traitsIcEENS6_9allocatorIcEEEENS5_IiNS5_IdNS0_9null_typeEEEEEEEE4callERKSG_, symObjAddr: 0x1334, symBinAddr: 0x100003520, symSize: 0x14 }
  - { offsetInCU: 0x89EF, offset: 0x89EF, size: 0x8, addend: 0x0, symName: __ZNKSt3__112basic_stringIcNS_11char_traitsIcEENS_9allocatorIcEEE4sizeB7v160006Ev, symObjAddr: 0x1348, symBinAddr: 0x100003534, symSize: 0x54 }
  - { offsetInCU: 0x8A13, offset: 0x8A13, size: 0x8, addend: 0x0, symName: __ZNKSt3__112basic_stringIcNS_11char_traitsIcEENS_9allocatorIcEEE15__get_long_sizeB7v160006Ev, symObjAddr: 0x139C, symBinAddr: 0x100003588, symSize: 0x28 }
  - { offsetInCU: 0x8A37, offset: 0x8A37, size: 0x8, addend: 0x0, symName: __ZNKSt3__112basic_stringIcNS_11char_traitsIcEENS_9allocatorIcEEE16__get_short_sizeB7v160006Ev, symObjAddr: 0x13C4, symBinAddr: 0x1000035B0, symSize: 0x34 }
  - { offsetInCU: 0x8A65, offset: 0x8A65, size: 0x8, addend: 0x0, symName: __ZN5boost6tuples6detail10drop_frontILm1EE5applyINS0_4consINSt3__112basic_stringIcNS6_11char_traitsIcEENS6_9allocatorIcEEEENS5_IiNS5_IdNS0_9null_typeEEEEEEEE4callERKSG_, symObjAddr: 0x141C, symBinAddr: 0x100003608, symSize: 0x28 }
  - { offsetInCU: 0x8A91, offset: 0x8A91, size: 0x8, addend: 0x0, symName: __ZN5boost6tuples6detail10drop_frontILm2EE5applyINS0_4consINSt3__112basic_stringIcNS6_11char_traitsIcEENS6_9allocatorIcEEEENS5_IiNS5_IdNS0_9null_typeEEEEEEEE4callERKSG_, symObjAddr: 0x1468, symBinAddr: 0x100003654, symSize: 0x28 }
  - { offsetInCU: 0x8AB3, offset: 0x8AB3, size: 0x8, addend: 0x0, symName: __ZNSt3__112basic_stringIcNS_11char_traitsIcEENS_9allocatorIcEEEC2B7v160006IDnEEPKc, symObjAddr: 0x1490, symBinAddr: 0x10000367C, symSize: 0x60 }
  - { offsetInCU: 0x8AEF, offset: 0x8AEF, size: 0x8, addend: 0x0, symName: __ZN5boost6tuples5tupleINSt3__112basic_stringIcNS2_11char_traitsIcEENS2_9allocatorIcEEEEidNS0_9null_typeES9_S9_S9_S9_S9_S9_EC2ERKS8_RKiRKd, symObjAddr: 0x14F0, symBinAddr: 0x1000036DC, symSize: 0xA8 }
  - { offsetInCU: 0x8B44, offset: 0x8B44, size: 0x8, addend: 0x0, symName: __ZN5boost6tuples4consINSt3__112basic_stringIcNS2_11char_traitsIcEENS2_9allocatorIcEEEENS1_IiNS1_IdNS0_9null_typeEEEEEEC2IKS8_KiKdKS9_SH_SH_SH_SH_SH_SH_EERT_RT0_RT1_RT2_RT3_RT4_RT5_RT6_RT7_RT8_, symObjAddr: 0x159C, symBinAddr: 0x100003788, symSize: 0x12C }
  - { offsetInCU: 0x8C61, offset: 0x8C61, size: 0x8, addend: 0x0, symName: __ZN5boost6tuples4consIiNS1_IdNS0_9null_typeEEEEC1IKiKdKS2_S8_S8_S8_S8_S8_S8_S8_EERT_RT0_RT1_RT2_RT3_RT4_RT5_RT6_RT7_RT8_, symObjAddr: 0x16C8, symBinAddr: 0x1000038B4, symSize: 0x98 }
  - { offsetInCU: 0x8D7A, offset: 0x8D7A, size: 0x8, addend: 0x0, symName: __ZN5boost6tuples4consIiNS1_IdNS0_9null_typeEEEEC2IKiKdKS2_S8_S8_S8_S8_S8_S8_S8_EERT_RT0_RT1_RT2_RT3_RT4_RT5_RT6_RT7_RT8_, symObjAddr: 0x1760, symBinAddr: 0x10000394C, symSize: 0xF8 }
  - { offsetInCU: 0x8E95, offset: 0x8E95, size: 0x8, addend: 0x0, symName: __ZN5boost6tuples4consIdNS0_9null_typeEEC1IKdEERT_RKS2_S9_S9_S9_S9_S9_S9_S9_S9_, symObjAddr: 0x1858, symBinAddr: 0x100003A44, symSize: 0x98 }
  - { offsetInCU: 0x8F42, offset: 0x8F42, size: 0x8, addend: 0x0, symName: __ZN5boost6tuples4consIdNS0_9null_typeEEC2IKdEERT_RKS2_S9_S9_S9_S9_S9_S9_S9_S9_, symObjAddr: 0x18F0, symBinAddr: 0x100003ADC, symSize: 0x54 }
...
